; ModuleID = '13/1107.c'
source_filename = "13/1107.c"
target datalayout = "e-m:e-p270:32:32-p271:32:32-p272:64:64-i64:64-f80:128-n8:16:32:64-S128"
target triple = "x86_64-pc-linux-gnu"

@.str = private unnamed_addr constant [3 x i8] c"%d\00", align 1
@.str.1 = private unnamed_addr constant [4 x i8] c" %d\00", align 1

; Function Attrs: noinline nounwind uwtable
define dso_local i32 @main() #0 {
  %1 = alloca i32, align 4
  %2 = alloca i64, align 8
  %3 = alloca i64, align 8
  %4 = alloca i64, align 8
  %5 = alloca i64, align 8
  %6 = alloca i64, align 8
  %7 = alloca i64, align 8
  %8 = alloca [200 x i64], align 16
  store i32 0, i32* %1, align 4
  %9 = call i32 (i8*, ...) @__isoc99_scanf(i8* getelementptr inbounds ([3 x i8], [3 x i8]* @.str, i64 0, i64 0), i64* %2)
  store i64 1, i64* %3, align 8
  br label %10

10:                                               ; preds = %16, %0
  %11 = load i64, i64* %3, align 8
  %12 = icmp sle i64 %11, 100
  br i1 %12, label %13, label %19

13:                                               ; preds = %10
  %14 = load i64, i64* %3, align 8
  %15 = getelementptr inbounds [200 x i64], [200 x i64]* %8, i64 0, i64 %14
  store i64 0, i64* %15, align 8
  br label %16

16:                                               ; preds = %13
  %17 = load i64, i64* %3, align 8
  %18 = add nsw i64 %17, 1
  store i64 %18, i64* %3, align 8
  br label %10

19:                                               ; preds = %10
  store i64 1, i64* %3, align 8
  br label %20

20:                                               ; preds = %43, %19
  %21 = load i64, i64* %3, align 8
  %22 = load i64, i64* %2, align 8
  %23 = icmp sle i64 %21, %22
  br i1 %23, label %24, label %46

24:                                               ; preds = %20
  %25 = call i32 (i8*, ...) @__isoc99_scanf(i8* getelementptr inbounds ([3 x i8], [3 x i8]* @.str, i64 0, i64 0), i64* %5)
  %26 = load i64, i64* %5, align 8
  %27 = getelementptr inbounds [200 x i64], [200 x i64]* %8, i64 0, i64 %26
  %28 = load i64, i64* %27, align 8
  %29 = icmp eq i64 %28, 0
  br i1 %29, label %30, label %40

30:                                               ; preds = %24
  %31 = load i64, i64* %3, align 8
  %32 = icmp eq i64 %31, 1
  br i1 %32, label %33, label %36

33:                                               ; preds = %30
  %34 = load i64, i64* %5, align 8
  %35 = call i32 (i8*, ...) @printf(i8* getelementptr inbounds ([3 x i8], [3 x i8]* @.str, i64 0, i64 0), i64 %34)
  br label %39

36:                                               ; preds = %30
  %37 = load i64, i64* %5, align 8
  %38 = call i32 (i8*, ...) @printf(i8* getelementptr inbounds ([4 x i8], [4 x i8]* @.str.1, i64 0, i64 0), i64 %37)
  br label %39

39:                                               ; preds = %36, %33
  br label %40

40:                                               ; preds = %39, %24
  %41 = load i64, i64* %5, align 8
  %42 = getelementptr inbounds [200 x i64], [200 x i64]* %8, i64 0, i64 %41
  store i64 1, i64* %42, align 8
  br label %43

43:                                               ; preds = %40
  %44 = load i64, i64* %3, align 8
  %45 = add nsw i64 %44, 1
  store i64 %45, i64* %3, align 8
  br label %20

46:                                               ; preds = %20
  %47 = load i32, i32* %1, align 4
  ret i32 %47
}

declare dso_local i32 @__isoc99_scanf(i8*, ...) #1

declare dso_local i32 @printf(i8*, ...) #1


!llvm.module.flags = !{!0}
!llvm.ident = !{!1}

!0 = !{i32 1, !"wchar_size", i32 4}
!1 = !{!"clang version 10.0.0-4ubuntu1 "}
